target datalayout = "e-m:e-p270:32:32-p271:32:32-p272:64:64-i64:64-i128:128-f80:128-n8:16:32:64-S128"
target triple = "x86_64-pc-linux-gnu"

%"class.icu_77::MessagePattern" = type <{ %"class.icu_77::UObject", i32, [4 x i8], %"class.icu_77::UnicodeString", ptr, ptr, i32, [4 x i8], ptr, ptr, i32, i8, i8, i8, i8 }>
%"class.icu_77::UObject" = type { ptr }
%"class.icu_77::UnicodeString" = type { %"class.icu_77::Replaceable", %"union.icu_77::UnicodeString::StackBufferOrFields" }
%"class.icu_77::Replaceable" = type { %"class.icu_77::UObject" }
%"union.icu_77::UnicodeString::StackBufferOrFields" = type { %struct.anon.0, [32 x i8] }
%struct.anon.0 = type { i16, i32, i32, ptr }
%"class.icu_77::MessagePatternList" = type { %"class.icu_77::MaybeStackArray" }
%"class.icu_77::MaybeStackArray" = type { ptr, i32, i8, [32 x %"class.icu_77::MessagePattern::Part"] }
%"class.icu_77::MessagePattern::Part" = type { i32, i32, i16, i16, i32 }

; Function Attrs: mustprogress uwtable
define linkonce_odr void @_ZN6icu_7715MaybeStackArrayINS_14MessagePattern4PartELi32EE12releaseArrayEv(ptr noundef nonnull align 8 dereferenceable(528) %0) #0 comdat align 2 {
  %2 = alloca ptr, align 8
  store ptr %0, ptr %2, align 8, !tbaa !42
  %3 = load ptr, ptr %2, align 8
  %4 = getelementptr inbounds nuw %"class.icu_77::MaybeStackArray", ptr %3, i32 0, i32 2
  %5 = load i8, ptr %4, align 4, !tbaa !104
  %6 = icmp ne i8 %5, 0
  br i1 %6, label %7, label %10

7:                                                ; preds = %1
  %8 = getelementptr inbounds nuw %"class.icu_77::MaybeStackArray", ptr %3, i32 0, i32 0
  %9 = load ptr, ptr %8, align 8, !tbaa !44
  call void @uprv_free_77(ptr noundef %9)
  br label %10

10:                                               ; preds = %7, %1
  ret void
}

; Function Attrs: inlinehint mustprogress uwtable
define linkonce_odr noundef ptr @_ZN6icu_7715MaybeStackArrayINS_14MessagePattern4PartELi32EE6resizeEii(ptr noundef nonnull align 8 dereferenceable(528) %0, i32 noundef %1, i32 noundef %2) #2 comdat align 2 {
  %4 = alloca ptr, align 8
  %5 = alloca ptr, align 8
  %6 = alloca i32, align 4
  %7 = alloca i32, align 4
  %8 = alloca ptr, align 8
  store ptr %0, ptr %5, align 8, !tbaa !42
  store i32 %1, ptr %6, align 4, !tbaa !48
  store i32 %2, ptr %7, align 4, !tbaa !48
  %9 = load ptr, ptr %5, align 8
  %10 = load i32, ptr %6, align 4, !tbaa !48
  %11 = icmp sgt i32 %10, 0
  br i1 %11, label %12, label %54

12:                                               ; preds = %3
  call void @llvm.lifetime.start.p0(i64 8, ptr %8) #12
  %13 = load i32, ptr %6, align 4, !tbaa !48
  %14 = sext i32 %13 to i64
  %15 = mul i64 %14, 16
  %16 = call noalias ptr @uprv_malloc_77(i64 noundef %15) #15
  store ptr %16, ptr %8, align 8, !tbaa !70
  %17 = load ptr, ptr %8, align 8, !tbaa !70
  %18 = icmp ne ptr %17, null
  br i1 %18, label %19, label %52

19:                                               ; preds = %12
  %20 = load i32, ptr %7, align 4, !tbaa !48
  %21 = icmp sgt i32 %20, 0
  br i1 %21, label %22, label %46

22:                                               ; preds = %19
  %23 = load i32, ptr %7, align 4, !tbaa !48
  %24 = getelementptr inbounds nuw %"class.icu_77::MaybeStackArray", ptr %9, i32 0, i32 1
  %25 = load i32, ptr %24, align 8, !tbaa !103
  %26 = icmp sgt i32 %23, %25
  br i1 %26, label %27, label %30

27:                                               ; preds = %22
  %28 = getelementptr inbounds nuw %"class.icu_77::MaybeStackArray", ptr %9, i32 0, i32 1
  %29 = load i32, ptr %28, align 8, !tbaa !103
  store i32 %29, ptr %7, align 4, !tbaa !48
  br label %30

30:                                               ; preds = %27, %22
  %31 = load i32, ptr %7, align 4, !tbaa !48
  %32 = load i32, ptr %6, align 4, !tbaa !48
  %33 = icmp sgt i32 %31, %32
  br i1 %33, label %34, label %36

34:                                               ; preds = %30
  %35 = load i32, ptr %6, align 4, !tbaa !48
  store i32 %35, ptr %7, align 4, !tbaa !48
  br label %36

36:                                               ; preds = %34, %30
  br label %37

37:                                               ; preds = %36
  %38 = load ptr, ptr %8, align 8, !tbaa !70
  %39 = getelementptr inbounds nuw %"class.icu_77::MaybeStackArray", ptr %9, i32 0, i32 0
  %40 = load ptr, ptr %39, align 8, !tbaa !44
  %41 = load i32, ptr %7, align 4, !tbaa !48
  %42 = sext i32 %41 to i64
  %43 = mul i64 %42, 16
  call void @llvm.memcpy.p0.p0.i64(ptr align 4 %38, ptr align 4 %40, i64 %43, i1 false)
  br label %44

44:                                               ; preds = %37
  br label %45

45:                                               ; preds = %44
  br label %46

46:                                               ; preds = %45, %19
  call void @_ZN6icu_7715MaybeStackArrayINS_14MessagePattern4PartELi32EE12releaseArrayEv(ptr noundef nonnull align 8 dereferenceable(528) %9)
  %47 = load ptr, ptr %8, align 8, !tbaa !70
  %48 = getelementptr inbounds nuw %"class.icu_77::MaybeStackArray", ptr %9, i32 0, i32 0
  store ptr %47, ptr %48, align 8, !tbaa !44
  %49 = load i32, ptr %6, align 4, !tbaa !48
  %50 = getelementptr inbounds nuw %"class.icu_77::MaybeStackArray", ptr %9, i32 0, i32 1
  store i32 %49, ptr %50, align 8, !tbaa !103
  %51 = getelementptr inbounds nuw %"class.icu_77::MaybeStackArray", ptr %9, i32 0, i32 2
  store i8 1, ptr %51, align 4, !tbaa !104
  br label %52

52:                                               ; preds = %46, %12
  %53 = load ptr, ptr %8, align 8, !tbaa !70
  store ptr %53, ptr %4, align 8
  call void @llvm.lifetime.end.p0(i64 8, ptr %8) #12
  br label %55

54:                                               ; preds = %3
  store ptr null, ptr %4, align 8
  br label %55

55:                                               ; preds = %54, %52
  %56 = load ptr, ptr %4, align 8
  ret ptr %56
}

; Function Attrs: mustprogress nounwind uwtable
define linkonce_odr noundef i32 @_ZNK6icu_7715MaybeStackArrayINS_14MessagePattern4PartELi32EE11getCapacityEv(ptr noundef nonnull align 8 dereferenceable(528) %0) #5 comdat align 2 {
  %2 = alloca ptr, align 8
  store ptr %0, ptr %2, align 8, !tbaa !42
  %3 = load ptr, ptr %2, align 8
  %4 = getelementptr inbounds nuw %"class.icu_77::MaybeStackArray", ptr %3, i32 0, i32 1
  %5 = load i32, ptr %4, align 8, !tbaa !103
  ret i32 %5
}

; Function Attrs: inlinehint mustprogress nounwind uwtable
define internal noundef signext i8 @_ZL9U_FAILURE10UErrorCode(i32 noundef %0) #1 {
  %2 = alloca i32, align 4
  store i32 %0, ptr %2, align 4, !tbaa !36
  %3 = load i32, ptr %2, align 4, !tbaa !36
  %4 = icmp sgt i32 %3, 0
  %5 = zext i1 %4 to i8
  ret i8 %5
}

; Function Attrs: mustprogress uwtable
define linkonce_odr noundef signext i8 @_ZN6icu_7718MessagePatternListINS_14MessagePattern4PartELi32EE24ensureCapacityForOneMoreEiR10UErrorCode(ptr noundef nonnull align 8 dereferenceable(528) %0, i32 noundef %1, ptr noundef nonnull align 4 dereferenceable(4) %2) #0 comdat align 2 {
  %4 = alloca i8, align 1
  %5 = alloca ptr, align 8
  %6 = alloca i32, align 4
  %7 = alloca ptr, align 8
  store ptr %0, ptr %5, align 8, !tbaa !46
  store i32 %1, ptr %6, align 4, !tbaa !48
  store ptr %2, ptr %7, align 8, !tbaa !8
  %8 = load ptr, ptr %5, align 8
  %9 = load ptr, ptr %7, align 8, !tbaa !8
  %10 = load i32, ptr %9, align 4, !tbaa !36
  %11 = call noundef signext i8 @_ZL9U_FAILURE10UErrorCode(i32 noundef %10)
  %12 = icmp ne i8 %11, 0
  br i1 %12, label %13, label %14

13:                                               ; preds = %3
  store i8 0, ptr %4, align 1
  br label %29

14:                                               ; preds = %3
  %15 = getelementptr inbounds nuw %"class.icu_77::MessagePatternList", ptr %8, i32 0, i32 0
  %16 = call noundef i32 @_ZNK6icu_7715MaybeStackArrayINS_14MessagePattern4PartELi32EE11getCapacityEv(ptr noundef nonnull align 8 dereferenceable(528) %15)
  %17 = load i32, ptr %6, align 4, !tbaa !48
  %18 = icmp sgt i32 %16, %17
  br i1 %18, label %26, label %19

19:                                               ; preds = %14
  %20 = getelementptr inbounds nuw %"class.icu_77::MessagePatternList", ptr %8, i32 0, i32 0
  %21 = load i32, ptr %6, align 4, !tbaa !48
  %22 = mul nsw i32 2, %21
  %23 = load i32, ptr %6, align 4, !tbaa !48
  %24 = call noundef ptr @_ZN6icu_7715MaybeStackArrayINS_14MessagePattern4PartELi32EE6resizeEii(ptr noundef nonnull align 8 dereferenceable(528) %20, i32 noundef %22, i32 noundef %23)
  %25 = icmp ne ptr %24, null
  br i1 %25, label %26, label %27

26:                                               ; preds = %19, %14
  store i8 1, ptr %4, align 1
  br label %29

27:                                               ; preds = %19
  %28 = load ptr, ptr %7, align 8, !tbaa !8
  store i32 7, ptr %28, align 4, !tbaa !36
  store i8 0, ptr %4, align 1
  br label %29

29:                                               ; preds = %27, %26, %13
  %30 = load i8, ptr %4, align 1
  ret i8 %30
}

; Function Attrs: mustprogress uwtable
define void @_ZN6icu_7714MessagePattern7addPartE23UMessagePatternPartTypeiiiR10UErrorCode(ptr noundef nonnull align 8 dereferenceable(127) %0, i32 noundef %1, i32 noundef %2, i32 noundef %3, i32 noundef %4, ptr noundef nonnull align 4 dereferenceable(4) %5) #0 align 2 {
  %7 = alloca ptr, align 8
  %8 = alloca i32, align 4
  %9 = alloca i32, align 4
  %10 = alloca i32, align 4
  %11 = alloca i32, align 4
  %12 = alloca ptr, align 8
  %13 = alloca ptr, align 8
  store ptr %0, ptr %7, align 8, !tbaa !3
  store i32 %1, ptr %8, align 4, !tbaa !80
  store i32 %2, ptr %9, align 4, !tbaa !48
  store i32 %3, ptr %10, align 4, !tbaa !48
  store i32 %4, ptr %11, align 4, !tbaa !48
  store ptr %5, ptr %12, align 8, !tbaa !8
  %14 = load ptr, ptr %7, align 8
  %15 = getelementptr inbounds nuw %"class.icu_77::MessagePattern", ptr %14, i32 0, i32 4
  %16 = load ptr, ptr %15, align 8, !tbaa !22
  %17 = getelementptr inbounds nuw %"class.icu_77::MessagePattern", ptr %14, i32 0, i32 6
  %18 = load i32, ptr %17, align 8, !tbaa !24
  %19 = load ptr, ptr %12, align 8, !tbaa !8
  %20 = call noundef signext i8 @_ZN6icu_7718MessagePatternListINS_14MessagePattern4PartELi32EE24ensureCapacityForOneMoreEiR10UErrorCode(ptr noundef nonnull align 8 dereferenceable(528) %16, i32 noundef %18, ptr noundef nonnull align 4 dereferenceable(4) %19)
  %21 = icmp ne i8 %20, 0
  br i1 %21, label %22, label %47

22:                                               ; preds = %6
  call void @llvm.lifetime.start.p0(i64 8, ptr %13) #12
  %23 = getelementptr inbounds nuw %"class.icu_77::MessagePattern", ptr %14, i32 0, i32 4
  %24 = load ptr, ptr %23, align 8, !tbaa !22
  %25 = getelementptr inbounds nuw %"class.icu_77::MessagePatternList", ptr %24, i32 0, i32 0
  %26 = getelementptr inbounds nuw %"class.icu_77::MessagePattern", ptr %14, i32 0, i32 6
  %27 = load i32, ptr %26, align 8, !tbaa !24
  %28 = add nsw i32 %27, 1
  store i32 %28, ptr %26, align 8, !tbaa !24
  %29 = sext i32 %27 to i64
  %30 = call noundef nonnull align 4 dereferenceable(16) ptr @_ZN6icu_7715MaybeStackArrayINS_14MessagePattern4PartELi32EEixEl(ptr noundef nonnull align 8 dereferenceable(528) %25, i64 noundef %29)
  store ptr %30, ptr %13, align 8, !tbaa !70
  %31 = load i32, ptr %8, align 4, !tbaa !80
  %32 = load ptr, ptr %13, align 8, !tbaa !70
  %33 = getelementptr inbounds nuw %"class.icu_77::MessagePattern::Part", ptr %32, i32 0, i32 0
  store i32 %31, ptr %33, align 4, !tbaa !71
  %34 = load i32, ptr %9, align 4, !tbaa !48
  %35 = load ptr, ptr %13, align 8, !tbaa !70
  %36 = getelementptr inbounds nuw %"class.icu_77::MessagePattern::Part", ptr %35, i32 0, i32 1
  store i32 %34, ptr %36, align 4, !tbaa !75
  %37 = load i32, ptr %10, align 4, !tbaa !48
  %38 = trunc i32 %37 to i16
  %39 = load ptr, ptr %13, align 8, !tbaa !70
  %40 = getelementptr inbounds nuw %"class.icu_77::MessagePattern::Part", ptr %39, i32 0, i32 2
  store i16 %38, ptr %40, align 4, !tbaa !76
  %41 = load i32, ptr %11, align 4, !tbaa !48
  %42 = trunc i32 %41 to i16
  %43 = load ptr, ptr %13, align 8, !tbaa !70
  %44 = getelementptr inbounds nuw %"class.icu_77::MessagePattern::Part", ptr %43, i32 0, i32 3
  store i16 %42, ptr %44, align 2, !tbaa !77
  %45 = load ptr, ptr %13, align 8, !tbaa !70
  %46 = getelementptr inbounds nuw %"class.icu_77::MessagePattern::Part", ptr %45, i32 0, i32 4
  store i32 0, ptr %46, align 4, !tbaa !83
  call void @llvm.lifetime.end.p0(i64 8, ptr %13) #12
  br label %47

47:                                               ; preds = %22, %6
  ret void
}

; Function Attrs: mustprogress nounwind uwtable
define linkonce_odr noundef nonnull align 4 dereferenceable(16) ptr @_ZN6icu_7715MaybeStackArrayINS_14MessagePattern4PartELi32EEixEl(ptr noundef nonnull align 8 dereferenceable(528) %0, i64 noundef %1) #5 comdat align 2 {
  %3 = alloca ptr, align 8
  %4 = alloca i64, align 8
  store ptr %0, ptr %3, align 8, !tbaa !42
  store i64 %1, ptr %4, align 8, !tbaa !87
  %5 = load ptr, ptr %3, align 8
  %6 = getelementptr inbounds nuw %"class.icu_77::MaybeStackArray", ptr %5, i32 0, i32 0
  %7 = load ptr, ptr %6, align 8, !tbaa !44
  %8 = load i64, ptr %4, align 8, !tbaa !87
  %9 = getelementptr inbounds %"class.icu_77::MessagePattern::Part", ptr %7, i64 %8
  ret ptr %9
}

; Function Attrs: mustprogress uwtable
define void @_ZN6icu_7714MessagePattern12addLimitPartEi23UMessagePatternPartTypeiiiR10UErrorCode(ptr noundef nonnull align 8 dereferenceable(127) %0, i32 noundef %1, i32 noundef %2, i32 noundef %3, i32 noundef %4, i32 noundef %5, ptr noundef nonnull align 4 dereferenceable(4) %6) #0 align 2 {
  %8 = alloca ptr, align 8
  %9 = alloca i32, align 4
  %10 = alloca i32, align 4
  %11 = alloca i32, align 4
  %12 = alloca i32, align 4
  %13 = alloca i32, align 4
  %14 = alloca ptr, align 8
  store ptr %0, ptr %8, align 8, !tbaa !3
  store i32 %1, ptr %9, align 4, !tbaa !48
  store i32 %2, ptr %10, align 4, !tbaa !80
  store i32 %3, ptr %11, align 4, !tbaa !48
  store i32 %4, ptr %12, align 4, !tbaa !48
  store i32 %5, ptr %13, align 4, !tbaa !48
  store ptr %6, ptr %14, align 8, !tbaa !8
  %15 = load ptr, ptr %8, align 8
  %16 = getelementptr inbounds nuw %"class.icu_77::MessagePattern", ptr %15, i32 0, i32 6
  %17 = load i32, ptr %16, align 8, !tbaa !24
  %18 = getelementptr inbounds nuw %"class.icu_77::MessagePattern", ptr %15, i32 0, i32 4
  %19 = load ptr, ptr %18, align 8, !tbaa !22
  %20 = getelementptr inbounds nuw %"class.icu_77::MessagePatternList", ptr %19, i32 0, i32 0
  %21 = load i32, ptr %9, align 4, !tbaa !48
  %22 = sext i32 %21 to i64
  %23 = call noundef nonnull align 4 dereferenceable(16) ptr @_ZN6icu_7715MaybeStackArrayINS_14MessagePattern4PartELi32EEixEl(ptr noundef nonnull align 8 dereferenceable(528) %20, i64 noundef %22)
  %24 = getelementptr inbounds nuw %"class.icu_77::MessagePattern::Part", ptr %23, i32 0, i32 4
  store i32 %17, ptr %24, align 4, !tbaa !83
  %25 = load i32, ptr %10, align 4, !tbaa !80
  %26 = load i32, ptr %11, align 4, !tbaa !48
  %27 = load i32, ptr %12, align 4, !tbaa !48
  %28 = load i32, ptr %13, align 4, !tbaa !48
  %29 = load ptr, ptr %14, align 8, !tbaa !8
  call void @_ZN6icu_7714MessagePattern7addPartE23UMessagePatternPartTypeiiiR10UErrorCode(ptr noundef nonnull align 8 dereferenceable(127) %15, i32 noundef %25, i32 noundef %26, i32 noundef %27, i32 noundef %28, ptr noundef nonnull align 4 dereferenceable(4) %29)
  ret void
}