; Function Attrs: mustprogress uwtable
define void @_ZN6icu_7714MessagePattern12addLimitPartEi23UMessagePatternPartTypeiiiR10UErrorCode(ptr noundef nonnull align 8 captures(none) dereferenceable(127) %0, i32 noundef %1, i32 noundef %2, i32 noundef %3, i32 noundef %4, i32 noundef %5, ptr noundef nonnull align 4 captures(none) dereferenceable(4) %6) local_unnamed_addr #2 align 2 {
  %8 = getelementptr inbounds nuw i8, ptr %0, i64 96
  %9 = load i32, ptr %8, align 8, !tbaa !32
  %10 = getelementptr inbounds nuw i8, ptr %0, i64 80
  %11 = load ptr, ptr %10, align 8, !tbaa !22
  %12 = sext i32 %1 to i64
  %13 = load ptr, ptr %11, align 8, !tbaa !23
  %14 = getelementptr inbounds %"class.icu_77::MessagePattern::Part", ptr %13, i64 %12, i32 4
  store i32 %9, ptr %14, align 4, !tbaa !51
  %15 = load i32, ptr %6, align 4, !tbaa !20
  %16 = icmp slt i32 %15, 1
  br i1 %16, label %17, label %_ZN6icu_7714MessagePattern7addPartE23UMessagePatternPartTypeiiiR10UErrorCode.exit

17:                                               ; preds = %7
  %18 = getelementptr inbounds nuw i8, ptr %11, i64 8
  %19 = load i32, ptr %18, align 8, !tbaa !25
  %20 = icmp sgt i32 %19, %9
  br i1 %20, label %_ZN6icu_7718MessagePatternListINS_14MessagePattern4PartELi32EE24ensureCapacityForOneMoreEiR10UErrorCode.exit.i, label %21

21:                                               ; preds = %17
  %22 = shl nsw i32 %9, 1
  %23 = icmp sgt i32 %9, 0
  br i1 %23, label %24, label %36

24:                                               ; preds = %21
  %25 = zext nneg i32 %22 to i64
  %26 = shl nuw nsw i64 %25, 4
  %27 = tail call noalias ptr @uprv_malloc_77(i64 noundef %26) #19
  %.not.i.i.i = icmp eq ptr %27, null
  br i1 %.not.i.i.i, label %36, label %28

28:                                               ; preds = %24
  %29 = load i32, ptr %18, align 8, !tbaa !25
  %spec.select.i.i.i = tail call i32 @llvm.smin.i32(i32 %9, i32 %29)
  %.1.i.i.i = tail call i32 @llvm.smin.i32(i32 %spec.select.i.i.i, i32 %22)
  %30 = load ptr, ptr %11, align 8, !tbaa !23
  %31 = sext i32 %.1.i.i.i to i64
  %32 = shl nsw i64 %31, 4
  tail call void @llvm.memcpy.p0.p0.i64(ptr nonnull align 4 %27, ptr align 4 %30, i64 %32, i1 false)
  %33 = getelementptr inbounds nuw i8, ptr %11, i64 12
  %34 = load i8, ptr %33, align 4, !tbaa !41
  %.not.i.i.i.i = icmp eq i8 %34, 0
  br i1 %.not.i.i.i.i, label %_ZN6icu_7715MaybeStackArrayINS_14MessagePattern4PartELi32EE6resizeEii.exit.i.i, label %35

35:                                               ; preds = %28
  tail call void @uprv_free_77(ptr noundef %30)
  br label %_ZN6icu_7715MaybeStackArrayINS_14MessagePattern4PartELi32EE6resizeEii.exit.i.i

_ZN6icu_7715MaybeStackArrayINS_14MessagePattern4PartELi32EE6resizeEii.exit.i.i: ; preds = %35, %28
  store ptr %27, ptr %11, align 8, !tbaa !23
  store i32 %22, ptr %18, align 8, !tbaa !25
  store i8 1, ptr %33, align 4, !tbaa !41
  %.pre.i = load ptr, ptr %10, align 8, !tbaa !22
  %.pre12.i = load i32, ptr %8, align 8, !tbaa !32
  %.pre = load ptr, ptr %.pre.i, align 8, !tbaa !23
  br label %_ZN6icu_7718MessagePatternListINS_14MessagePattern4PartELi32EE24ensureCapacityForOneMoreEiR10UErrorCode.exit.i

36:                                               ; preds = %24, %21
  store i32 7, ptr %6, align 4, !tbaa !20
  br label %_ZN6icu_7714MessagePattern7addPartE23UMessagePatternPartTypeiiiR10UErrorCode.exit

_ZN6icu_7718MessagePatternListINS_14MessagePattern4PartELi32EE24ensureCapacityForOneMoreEiR10UErrorCode.exit.i: ; preds = %_ZN6icu_7715MaybeStackArrayINS_14MessagePattern4PartELi32EE6resizeEii.exit.i.i, %17
  %37 = phi ptr [ %.pre, %_ZN6icu_7715MaybeStackArrayINS_14MessagePattern4PartELi32EE6resizeEii.exit.i.i ], [ %13, %17 ]
  %38 = phi i32 [ %.pre12.i, %_ZN6icu_7715MaybeStackArrayINS_14MessagePattern4PartELi32EE6resizeEii.exit.i.i ], [ %9, %17 ]
  %39 = add nsw i32 %38, 1
  store i32 %39, ptr %8, align 8, !tbaa !32
  %40 = sext i32 %38 to i64
  %41 = getelementptr inbounds %"class.icu_77::MessagePattern::Part", ptr %37, i64 %40
  store i32 %2, ptr %41, align 4, !tbaa !44
  %42 = getelementptr inbounds nuw i8, ptr %41, i64 4
  store i32 %3, ptr %42, align 4, !tbaa !48
  %43 = trunc i32 %4 to i16
  %44 = getelementptr inbounds nuw i8, ptr %41, i64 8
  store i16 %43, ptr %44, align 4, !tbaa !49
  %45 = trunc i32 %5 to i16
  %46 = getelementptr inbounds nuw i8, ptr %41, i64 10
  store i16 %45, ptr %46, align 2, !tbaa !50
  %47 = getelementptr inbounds nuw i8, ptr %41, i64 12
  store i32 0, ptr %47, align 4, !tbaa !51
  br label %_ZN6icu_7714MessagePattern7addPartE23UMessagePatternPartTypeiiiR10UErrorCode.exit

_ZN6icu_7714MessagePattern7addPartE23UMessagePatternPartTypeiiiR10UErrorCode.exit: ; preds = %7, %36, %_ZN6icu_7718MessagePatternListINS_14MessagePattern4PartELi32EE24ensureCapacityForOneMoreEiR10UErrorCode.exit.i
  ret void
}